; ModuleID = '22/909.c'
source_filename = "22/909.c"
target datalayout = "e-m:e-p270:32:32-p271:32:32-p272:64:64-i64:64-f80:128-n8:16:32:64-S128"
target triple = "x86_64-pc-linux-gnu"

@.str = private unnamed_addr constant [3 x i8] c"%d\00", align 1
@.str.1 = private unnamed_addr constant [3 x i8] c"No\00", align 1

; Function Attrs: noinline nounwind uwtable
define dso_local i32 @main() #0 {
  %1 = alloca i32, align 4
  %2 = alloca i32, align 4
  %3 = alloca i32, align 4
  %4 = alloca i32, align 4
  %5 = alloca i32, align 4
  %6 = alloca i32, align 4
  %7 = alloca i8, align 1
  store i32 0, i32* %1, align 4
  store i32 0, i32* %2, align 4
  store i32 0, i32* %6, align 4
  br label %8

8:                                                ; preds = %85, %0
  %9 = load i8, i8* %7, align 1
  %10 = sext i8 %9 to i32
  %11 = icmp ne i32 %10, 10
  br i1 %11, label %12, label %86

12:                                               ; preds = %8
  %13 = call i32 (i8*, ...) @__isoc99_scanf(i8* getelementptr inbounds ([3 x i8], [3 x i8]* @.str, i64 0, i64 0), i32* %5)
  %14 = call i32 @getchar()
  %15 = trunc i32 %14 to i8
  store i8 %15, i8* %7, align 1
  %16 = load i32, i32* %6, align 4
  %17 = add nsw i32 %16, 1
  store i32 %17, i32* %6, align 4
  %18 = load i32, i32* %2, align 4
  %19 = add nsw i32 %18, 1
  store i32 %19, i32* %2, align 4
  %20 = load i32, i32* %6, align 4
  %21 = icmp eq i32 %20, 1
  br i1 %21, label %22, label %24

22:                                               ; preds = %12
  %23 = load i32, i32* %5, align 4
  store i32 %23, i32* %4, align 4
  store i32 0, i32* %3, align 4
  br label %85

24:                                               ; preds = %12
  %25 = load i32, i32* %6, align 4
  %26 = icmp eq i32 %25, 2
  br i1 %26, label %27, label %37

27:                                               ; preds = %24
  %28 = load i32, i32* %5, align 4
  %29 = load i32, i32* %4, align 4
  %30 = icmp sle i32 %28, %29
  br i1 %30, label %31, label %33

31:                                               ; preds = %27
  %32 = load i32, i32* %5, align 4
  store i32 %32, i32* %3, align 4
  br label %36

33:                                               ; preds = %27
  %34 = load i32, i32* %4, align 4
  store i32 %34, i32* %3, align 4
  %35 = load i32, i32* %5, align 4
  store i32 %35, i32* %4, align 4
  br label %36

36:                                               ; preds = %33, %31
  br label %84

37:                                               ; preds = %24
  %38 = load i32, i32* %5, align 4
  %39 = load i32, i32* %3, align 4
  %40 = icmp sge i32 %38, %39
  br i1 %40, label %41, label %56

41:                                               ; preds = %37
  %42 = load i32, i32* %5, align 4
  %43 = load i32, i32* %4, align 4
  %44 = icmp sle i32 %42, %43
  br i1 %44, label %45, label %56

45:                                               ; preds = %41
  %46 = load i32, i32* %5, align 4
  %47 = load i32, i32* %4, align 4
  %48 = icmp eq i32 %46, %47
  br i1 %48, label %49, label %52

49:                                               ; preds = %45
  %50 = load i32, i32* %3, align 4
  store i32 %50, i32* %3, align 4
  %51 = load i32, i32* %5, align 4
  store i32 %51, i32* %4, align 4
  br label %55

52:                                               ; preds = %45
  %53 = load i32, i32* %5, align 4
  store i32 %53, i32* %3, align 4
  %54 = load i32, i32* %4, align 4
  store i32 %54, i32* %4, align 4
  br label %55

55:                                               ; preds = %52, %49
  br label %83

56:                                               ; preds = %41, %37
  %57 = load i32, i32* %5, align 4
  %58 = load i32, i32* %3, align 4
  %59 = icmp slt i32 %57, %58
  br i1 %59, label %60, label %71

60:                                               ; preds = %56
  %61 = load i32, i32* %3, align 4
  %62 = load i32, i32* %4, align 4
  %63 = icmp eq i32 %61, %62
  br i1 %63, label %64, label %67

64:                                               ; preds = %60
  %65 = load i32, i32* %5, align 4
  store i32 %65, i32* %3, align 4
  %66 = load i32, i32* %4, align 4
  store i32 %66, i32* %4, align 4
  br label %70

67:                                               ; preds = %60
  %68 = load i32, i32* %3, align 4
  store i32 %68, i32* %3, align 4
  %69 = load i32, i32* %4, align 4
  store i32 %69, i32* %4, align 4
  br label %70

70:                                               ; preds = %67, %64
  br label %82

71:                                               ; preds = %56
  %72 = load i32, i32* %3, align 4
  %73 = load i32, i32* %4, align 4
  %74 = icmp eq i32 %72, %73
  br i1 %74, label %75, label %78

75:                                               ; preds = %71
  %76 = load i32, i32* %3, align 4
  store i32 %76, i32* %3, align 4
  %77 = load i32, i32* %5, align 4
  store i32 %77, i32* %4, align 4
  br label %81

78:                                               ; preds = %71
  %79 = load i32, i32* %4, align 4
  store i32 %79, i32* %3, align 4
  %80 = load i32, i32* %5, align 4
  store i32 %80, i32* %4, align 4
  br label %81

81:                                               ; preds = %78, %75
  br label %82

82:                                               ; preds = %81, %70
  br label %83

83:                                               ; preds = %82, %55
  br label %84

84:                                               ; preds = %83, %36
  br label %85

85:                                               ; preds = %84, %22
  br label %8

86:                                               ; preds = %8
  %87 = load i32, i32* %2, align 4
  %88 = icmp eq i32 %87, 1
  br i1 %88, label %89, label %91

89:                                               ; preds = %86
  %90 = call i32 (i8*, ...) @printf(i8* getelementptr inbounds ([3 x i8], [3 x i8]* @.str.1, i64 0, i64 0))
  br label %101

91:                                               ; preds = %86
  %92 = load i32, i32* %3, align 4
  %93 = load i32, i32* %4, align 4
  %94 = icmp eq i32 %92, %93
  br i1 %94, label %95, label %97

95:                                               ; preds = %91
  %96 = call i32 (i8*, ...) @printf(i8* getelementptr inbounds ([3 x i8], [3 x i8]* @.str.1, i64 0, i64 0))
  br label %100

97:                                               ; preds = %91
  %98 = load i32, i32* %3, align 4
  %99 = call i32 (i8*, ...) @printf(i8* getelementptr inbounds ([3 x i8], [3 x i8]* @.str, i64 0, i64 0), i32 %98)
  br label %100

100:                                              ; preds = %97, %95
  br label %101

101:                                              ; preds = %100, %89
  ret i32 0
}

declare dso_local i32 @__isoc99_scanf(i8*, ...) #1

declare dso_local i32 @getchar() #1

declare dso_local i32 @printf(i8*, ...) #1


!llvm.module.flags = !{!0}
!llvm.ident = !{!1}

!0 = !{i32 1, !"wchar_size", i32 4}
!1 = !{!"clang version 10.0.0-4ubuntu1 "}
