; ModuleID = 'source-C-CXX/21/909.c'
source_filename = "source-C-CXX/21/909.c"
target datalayout = "e-m:e-p270:32:32-p271:32:32-p272:64:64-i64:64-f80:128-n8:16:32:64-S128"
target triple = "x86_64-pc-linux-gnu"

%struct._IO_FILE = type { i32, i8*, i8*, i8*, i8*, i8*, i8*, i8*, i8*, i8*, i8*, i8*, %struct._IO_marker*, %struct._IO_FILE*, i32, i32, i64, i16, i8, [1 x i8], i8*, i64, %struct._IO_codecvt*, %struct._IO_wide_data*, %struct._IO_FILE*, i8*, i64, i32, [20 x i8] }
%struct._IO_marker = type opaque
%struct._IO_codecvt = type opaque
%struct._IO_wide_data = type opaque

@.str = private unnamed_addr constant [3 x i8] c"%d\00", align 1
@.str.1 = private unnamed_addr constant [3 x i8] c"No\00", align 1
@stdin = external local_unnamed_addr global %struct._IO_FILE*, align 8

; Function Attrs: nofree nounwind sspstrong uwtable
define dso_local i32 @main() local_unnamed_addr #0 {
  %1 = alloca i32, align 4
  %2 = bitcast i32* %1 to i8*
  call void @llvm.lifetime.start.p0i8(i64 4, i8* nonnull %2) #3
  %3 = call i32 (i8*, ...) @__isoc99_scanf(i8* getelementptr inbounds ([3 x i8], [3 x i8]* @.str, i64 0, i64 0), i32* nonnull %1)
  %4 = load %struct._IO_FILE*, %struct._IO_FILE** @stdin, align 8, !tbaa !5
  %5 = call i32 @getc(%struct._IO_FILE* %4) #3
  %6 = load i32, i32* %1, align 4, !tbaa !9
  %7 = and i32 %5, 255
  %8 = icmp eq i32 %7, 10
  br i1 %8, label %41, label %9

9:                                                ; preds = %0
  %10 = call i32 (i8*, ...) @__isoc99_scanf(i8* getelementptr inbounds ([3 x i8], [3 x i8]* @.str, i64 0, i64 0), i32* nonnull %1)
  %11 = load %struct._IO_FILE*, %struct._IO_FILE** @stdin, align 8, !tbaa !5
  %12 = call i32 @getc(%struct._IO_FILE* %11) #3
  %13 = load i32, i32* %1, align 4, !tbaa !9
  %14 = icmp sgt i32 %13, %6
  %15 = select i1 %14, i32 %6, i32 %13
  %16 = select i1 %14, i32 %13, i32 %6
  %17 = and i32 %12, 255
  %18 = icmp eq i32 %17, 10
  br i1 %18, label %43, label %19

19:                                               ; preds = %9, %36
  %20 = phi i32 [ %38, %36 ], [ %16, %9 ]
  %21 = phi i32 [ %37, %36 ], [ %15, %9 ]
  %22 = call i32 (i8*, ...) @__isoc99_scanf(i8* getelementptr inbounds ([3 x i8], [3 x i8]* @.str, i64 0, i64 0), i32* nonnull %1)
  %23 = load %struct._IO_FILE*, %struct._IO_FILE** @stdin, align 8, !tbaa !5
  %24 = call i32 @getc(%struct._IO_FILE* %23) #3
  %25 = load i32, i32* %1, align 4, !tbaa !9
  %26 = icmp slt i32 %25, %21
  %27 = icmp sgt i32 %25, %20
  %28 = select i1 %26, i1 true, i1 %27
  br i1 %28, label %32, label %29

29:                                               ; preds = %19
  %30 = icmp eq i32 %25, %20
  %31 = select i1 %30, i32 %21, i32 %25
  br label %36

32:                                               ; preds = %19
  br i1 %26, label %33, label %36

33:                                               ; preds = %32
  %34 = icmp eq i32 %21, %20
  %35 = select i1 %34, i32 %25, i32 %21
  br label %36

36:                                               ; preds = %32, %33, %29
  %37 = phi i32 [ %31, %29 ], [ %35, %33 ], [ %20, %32 ]
  %38 = phi i32 [ %20, %29 ], [ %20, %33 ], [ %25, %32 ]
  %39 = and i32 %24, 255
  %40 = icmp eq i32 %39, 10
  br i1 %40, label %43, label %19, !llvm.loop !11

41:                                               ; preds = %0
  %42 = call i32 (i8*, ...) @printf(i8* nonnull dereferenceable(1) getelementptr inbounds ([3 x i8], [3 x i8]* @.str.1, i64 0, i64 0))
  br label %51

43:                                               ; preds = %36, %9
  %44 = phi i32 [ %15, %9 ], [ %37, %36 ]
  %45 = phi i32 [ %16, %9 ], [ %38, %36 ]
  %46 = icmp eq i32 %44, %45
  br i1 %46, label %47, label %49

47:                                               ; preds = %43
  %48 = call i32 (i8*, ...) @printf(i8* nonnull dereferenceable(1) getelementptr inbounds ([3 x i8], [3 x i8]* @.str.1, i64 0, i64 0))
  br label %51

49:                                               ; preds = %43
  %50 = call i32 (i8*, ...) @printf(i8* nonnull dereferenceable(1) getelementptr inbounds ([3 x i8], [3 x i8]* @.str, i64 0, i64 0), i32 %44)
  br label %51

51:                                               ; preds = %47, %49, %41
  call void @llvm.lifetime.end.p0i8(i64 4, i8* nonnull %2) #3
  ret i32 0
}

; Function Attrs: argmemonly mustprogress nofree nosync nounwind willreturn
declare void @llvm.lifetime.start.p0i8(i64 immarg, i8* nocapture) #1

; Function Attrs: nofree nounwind
declare noundef i32 @__isoc99_scanf(i8* nocapture noundef readonly, ...) local_unnamed_addr #2

; Function Attrs: nofree nounwind
declare noundef i32 @printf(i8* nocapture noundef readonly, ...) local_unnamed_addr #2

; Function Attrs: argmemonly mustprogress nofree nosync nounwind willreturn
declare void @llvm.lifetime.end.p0i8(i64 immarg, i8* nocapture) #1

; Function Attrs: nofree nounwind
declare noundef i32 @getc(%struct._IO_FILE* nocapture noundef) local_unnamed_addr #2


!llvm.module.flags = !{!0, !1, !2, !3}
!llvm.ident = !{!4}

!0 = !{i32 1, !"wchar_size", i32 4}
!1 = !{i32 7, !"PIC Level", i32 2}
!2 = !{i32 7, !"PIE Level", i32 2}
!3 = !{i32 7, !"uwtable", i32 1}
!4 = !{!"clang version 13.0.0"}
!5 = !{!6, !6, i64 0}
!6 = !{!"any pointer", !7, i64 0}
!7 = !{!"omnipotent char", !8, i64 0}
!8 = !{!"Simple C/C++ TBAA"}
!9 = !{!10, !10, i64 0}
!10 = !{!"int", !7, i64 0}
!11 = distinct !{!11, !12, !13}
!12 = !{!"llvm.loop.mustprogress"}
!13 = !{!"llvm.loop.peeled.count", i32 2}
